target datalayout = "e-m:e-p270:32:32-p271:32:32-p272:64:64-i64:64-i128:128-f80:128-n8:16:32:64-S128"
target triple = "x86_64-pc-linux-gnu"

%class.XMark = type <{ ptr, ptr, [48 x i8], %class.XMarkStackAllocator, %class.XMarkStripeSet, %class.XMarkTerminate, i8, [7 x i8], i64, i64, i64, i64, i64, i64, i32, [4 x i8] }>
%class.XMarkStackAllocator = type { %class.XStackList, [56 x i8], %class.XMarkStackSpace }
%class.XStackList = type { ptr }
%class.XMarkStackSpace = type { %class.XLock, i64, i64, i64 }
%class.XLock = type { %class.PlatformMutex }
%class.PlatformMutex = type { %union.pthread_mutex_t }
%union.pthread_mutex_t = type { %struct.__pthread_mutex_s }
%struct.__pthread_mutex_s = type { i32, i32, i32, i32, i32, i16, i16, %struct.__pthread_internal_list }
%struct.__pthread_internal_list = type { ptr, ptr }
%class.XMarkStripeSet = type { i64, i64, [48 x i8], [16 x %class.XMarkStripe] }
%class.XMarkStripe = type { %class.XStackList.0, [56 x i8], %class.XStackList.0, [56 x i8] }
%class.XStackList.0 = type { ptr }
%class.XMarkTerminate = type { i32, [60 x i8], i32, i32, [56 x i8] }

; Function Attrs: mustprogress nounwind uwtable
define linkonce_odr hidden void @_ZN14XMarkTerminate5resetEj(ptr noundef nonnull align 64 dereferenceable(72) %0, i32 noundef %1) #1 comdat align 2 {
  %3 = alloca ptr, align 8
  %4 = alloca i32, align 4
  store ptr %0, ptr %3, align 8
  store i32 %1, ptr %4, align 4
  %5 = load ptr, ptr %3, align 8
  %6 = load i32, ptr %4, align 4
  %7 = getelementptr inbounds %class.XMarkTerminate, ptr %5, i32 0, i32 3
  store volatile i32 %6, ptr %7, align 4
  %8 = load volatile i32, ptr %7, align 4
  %9 = getelementptr inbounds %class.XMarkTerminate, ptr %5, i32 0, i32 2
  store volatile i32 %8, ptr %9, align 64
  %10 = load volatile i32, ptr %9, align 64
  %11 = getelementptr inbounds %class.XMarkTerminate, ptr %5, i32 0, i32 0
  store i32 %10, ptr %11, align 64
  ret void
}

; Function Attrs: mustprogress nounwind uwtable
define hidden void @_ZN5XMark12prepare_workEv(ptr noundef nonnull align 64 dereferenceable(2492) %0) #1 align 2 {
  %2 = alloca ptr, align 8
  store ptr %0, ptr %2, align 8
  %3 = load ptr, ptr %2, align 8
  %4 = getelementptr inbounds %class.XMark, ptr %3, i32 0, i32 5
  %5 = getelementptr inbounds %class.XMark, ptr %3, i32 0, i32 14
  %6 = load i32, ptr %5, align 8
  call void @_ZN14XMarkTerminate5resetEj(ptr noundef nonnull align 64 dereferenceable(72) %4, i32 noundef %6)
  %7 = getelementptr inbounds %class.XMark, ptr %3, i32 0, i32 9
  store volatile i64 0, ptr %7, align 16
  %8 = load volatile i64, ptr %7, align 16
  %9 = getelementptr inbounds %class.XMark, ptr %3, i32 0, i32 8
  store volatile i64 %8, ptr %9, align 8
  %10 = getelementptr inbounds %class.XMark, ptr %3, i32 0, i32 6
  store volatile i8 1, ptr %10, align 64
  ret void
}