; Function Attrs: mustprogress nofree norecurse nounwind memory(argmem: readwrite, inaccessiblemem: readwrite) uwtable
define hidden void @_ZN5XMark12prepare_workEv(ptr noundef nonnull align 64 dereferenceable(2492) %0) local_unnamed_addr #3 align 2 {
  %2 = getelementptr inbounds i8, ptr %0, i64 2304
  %3 = getelementptr inbounds i8, ptr %0, i64 2488
  %4 = load i32, ptr %3, align 8
  %5 = getelementptr inbounds i8, ptr %0, i64 2372
  store volatile i32 %4, ptr %5, align 4
  %6 = load volatile i32, ptr %5, align 4
  %7 = getelementptr inbounds i8, ptr %0, i64 2368
  store volatile i32 %6, ptr %7, align 64
  %8 = load volatile i32, ptr %7, align 64
  store i32 %8, ptr %2, align 64
  %9 = getelementptr inbounds i8, ptr %0, i64 2448
  store volatile i64 0, ptr %9, align 16
  %10 = load volatile i64, ptr %9, align 16
  %11 = getelementptr inbounds i8, ptr %0, i64 2440
  store volatile i64 %10, ptr %11, align 8
  %12 = getelementptr inbounds i8, ptr %0, i64 2432
  store volatile i8 1, ptr %12, align 64
  ret void
}